; ModuleID = '60/434.c'
source_filename = "60/434.c"
target datalayout = "e-m:e-p270:32:32-p271:32:32-p272:64:64-i64:64-f80:128-n8:16:32:64-S128"
target triple = "x86_64-pc-linux-gnu"

@.str = private unnamed_addr constant [3 x i8] c"%d\00", align 1
@.str.1 = private unnamed_addr constant [7 x i8] c"%d %d\0A\00", align 1
@.str.2 = private unnamed_addr constant [6 x i8] c"empty\00", align 1

; Function Attrs: noinline nounwind uwtable
define dso_local i32 @main() #0 {
  %1 = alloca i32, align 4
  %2 = alloca i32, align 4
  %3 = alloca i32, align 4
  %4 = alloca i32, align 4
  %5 = alloca i32, align 4
  %6 = alloca i32, align 4
  %7 = alloca i32, align 4
  store i32 0, i32* %1, align 4
  store i32 0, i32* %7, align 4
  %8 = call i32 (i8*, ...) @__isoc99_scanf(i8* getelementptr inbounds ([3 x i8], [3 x i8]* @.str, i64 0, i64 0), i32* %2)
  store i32 1, i32* %3, align 4
  br label %9

9:                                                ; preds = %78, %0
  %10 = load i32, i32* %3, align 4
  %11 = load i32, i32* %2, align 4
  %12 = sub nsw i32 %11, 2
  %13 = icmp sle i32 %10, %12
  br i1 %13, label %14, label %81

14:                                               ; preds = %9
  %15 = load i32, i32* %3, align 4
  %16 = sitofp i32 %15 to double
  %17 = call double @sqrt(double %16) #3
  %18 = fptosi double %17 to i32
  store i32 %18, i32* %4, align 4
  store i32 2, i32* %5, align 4
  br label %19

19:                                               ; preds = %31, %14
  %20 = load i32, i32* %5, align 4
  %21 = load i32, i32* %4, align 4
  %22 = add nsw i32 %21, 1
  %23 = icmp slt i32 %20, %22
  br i1 %23, label %24, label %34

24:                                               ; preds = %19
  %25 = load i32, i32* %3, align 4
  %26 = load i32, i32* %5, align 4
  %27 = srem i32 %25, %26
  %28 = icmp eq i32 %27, 0
  br i1 %28, label %29, label %30

29:                                               ; preds = %24
  br label %34

30:                                               ; preds = %24
  br label %31

31:                                               ; preds = %30
  %32 = load i32, i32* %5, align 4
  %33 = add nsw i32 %32, 1
  store i32 %33, i32* %5, align 4
  br label %19

34:                                               ; preds = %29, %19
  %35 = load i32, i32* %5, align 4
  %36 = load i32, i32* %4, align 4
  %37 = add nsw i32 %36, 1
  %38 = icmp sge i32 %35, %37
  br i1 %38, label %39, label %77

39:                                               ; preds = %34
  %40 = load i32, i32* %3, align 4
  %41 = add nsw i32 %40, 2
  %42 = sitofp i32 %41 to double
  %43 = call double @sqrt(double %42) #3
  %44 = fptosi double %43 to i32
  store i32 %44, i32* %6, align 4
  store i32 2, i32* %5, align 4
  br label %45

45:                                               ; preds = %58, %39
  %46 = load i32, i32* %5, align 4
  %47 = load i32, i32* %6, align 4
  %48 = add nsw i32 %47, 1
  %49 = icmp slt i32 %46, %48
  br i1 %49, label %50, label %61

50:                                               ; preds = %45
  %51 = load i32, i32* %3, align 4
  %52 = add nsw i32 %51, 2
  %53 = load i32, i32* %5, align 4
  %54 = srem i32 %52, %53
  %55 = icmp eq i32 %54, 0
  br i1 %55, label %56, label %57

56:                                               ; preds = %50
  br label %61

57:                                               ; preds = %50
  br label %58

58:                                               ; preds = %57
  %59 = load i32, i32* %5, align 4
  %60 = add nsw i32 %59, 1
  store i32 %60, i32* %5, align 4
  br label %45

61:                                               ; preds = %56, %45
  %62 = load i32, i32* %5, align 4
  %63 = load i32, i32* %6, align 4
  %64 = add nsw i32 %63, 1
  %65 = icmp sge i32 %62, %64
  br i1 %65, label %66, label %76

66:                                               ; preds = %61
  %67 = load i32, i32* %3, align 4
  %68 = icmp ne i32 %67, 1
  br i1 %68, label %69, label %76

69:                                               ; preds = %66
  %70 = load i32, i32* %3, align 4
  %71 = load i32, i32* %3, align 4
  %72 = add nsw i32 %71, 2
  %73 = call i32 (i8*, ...) @printf(i8* getelementptr inbounds ([7 x i8], [7 x i8]* @.str.1, i64 0, i64 0), i32 %70, i32 %72)
  %74 = load i32, i32* %7, align 4
  %75 = add nsw i32 %74, 1
  store i32 %75, i32* %7, align 4
  br label %76

76:                                               ; preds = %69, %66, %61
  br label %77

77:                                               ; preds = %76, %34
  br label %78

78:                                               ; preds = %77
  %79 = load i32, i32* %3, align 4
  %80 = add nsw i32 %79, 2
  store i32 %80, i32* %3, align 4
  br label %9

81:                                               ; preds = %9
  %82 = load i32, i32* %7, align 4
  %83 = icmp eq i32 %82, 0
  br i1 %83, label %84, label %86

84:                                               ; preds = %81
  %85 = call i32 (i8*, ...) @printf(i8* getelementptr inbounds ([6 x i8], [6 x i8]* @.str.2, i64 0, i64 0))
  br label %86

86:                                               ; preds = %84, %81
  %87 = load i32, i32* %1, align 4
  ret i32 %87
}

declare dso_local i32 @__isoc99_scanf(i8*, ...) #1

; Function Attrs: nounwind
declare dso_local double @sqrt(double) #2

declare dso_local i32 @printf(i8*, ...) #1


!llvm.module.flags = !{!0}
!llvm.ident = !{!1}

!0 = !{i32 1, !"wchar_size", i32 4}
!1 = !{!"clang version 10.0.0-4ubuntu1 "}
