; ModuleID = 'source-C-CXX/59/434.c'
source_filename = "source-C-CXX/59/434.c"
target datalayout = "e-m:e-p270:32:32-p271:32:32-p272:64:64-i64:64-f80:128-n8:16:32:64-S128"
target triple = "x86_64-pc-linux-gnu"

@.str = private unnamed_addr constant [3 x i8] c"%d\00", align 1
@.str.1 = private unnamed_addr constant [7 x i8] c"%d %d\0A\00", align 1
@.str.2 = private unnamed_addr constant [6 x i8] c"empty\00", align 1

; Function Attrs: nofree nounwind sspstrong uwtable
define dso_local i32 @main() local_unnamed_addr #0 {
  %1 = alloca i32, align 4
  %2 = bitcast i32* %1 to i8*
  call void @llvm.lifetime.start.p0i8(i64 4, i8* nonnull %2) #4
  %3 = call i32 (i8*, ...) @__isoc99_scanf(i8* getelementptr inbounds ([3 x i8], [3 x i8]* @.str, i64 0, i64 0), i32* nonnull %1)
  %4 = load i32, i32* %1, align 4, !tbaa !5
  %5 = icmp slt i32 %4, 3
  br i1 %5, label %48, label %6

6:                                                ; preds = %0, %40
  %7 = phi i32 [ %42, %40 ], [ 0, %0 ]
  %8 = phi i32 [ %41, %40 ], [ 1, %0 ]
  %9 = sitofp i32 %8 to double
  %10 = call double @sqrt(double %9) #4
  %11 = fptosi double %10 to i32
  %12 = icmp slt i32 %11, 2
  br i1 %12, label %20, label %16

13:                                               ; preds = %16
  %14 = add nuw i32 %17, 1
  %15 = icmp eq i32 %17, %11
  br i1 %15, label %20, label %16, !llvm.loop !9

16:                                               ; preds = %6, %13
  %17 = phi i32 [ %14, %13 ], [ 2, %6 ]
  %18 = urem i32 %8, %17
  %19 = icmp eq i32 %18, 0
  br i1 %19, label %38, label %13

20:                                               ; preds = %13, %6
  %21 = add nuw nsw i32 %8, 2
  %22 = sitofp i32 %21 to double
  %23 = call double @sqrt(double %22) #4
  %24 = fptosi double %23 to i32
  %25 = icmp slt i32 %24, 2
  br i1 %25, label %33, label %29

26:                                               ; preds = %29
  %27 = add nuw i32 %30, 1
  %28 = icmp eq i32 %30, %24
  br i1 %28, label %33, label %29, !llvm.loop !11

29:                                               ; preds = %20, %26
  %30 = phi i32 [ %27, %26 ], [ 2, %20 ]
  %31 = urem i32 %21, %30
  %32 = icmp eq i32 %31, 0
  br i1 %32, label %40, label %26

33:                                               ; preds = %26, %20
  %34 = icmp eq i32 %8, 1
  br i1 %34, label %40, label %35

35:                                               ; preds = %33
  %36 = call i32 (i8*, ...) @printf(i8* nonnull dereferenceable(1) getelementptr inbounds ([7 x i8], [7 x i8]* @.str.1, i64 0, i64 0), i32 %8, i32 %21)
  %37 = add nsw i32 %7, 1
  br label %40

38:                                               ; preds = %16
  %39 = add nuw nsw i32 %8, 2
  br label %40

40:                                               ; preds = %29, %38, %35, %33
  %41 = phi i32 [ %39, %38 ], [ %21, %35 ], [ 3, %33 ], [ %21, %29 ]
  %42 = phi i32 [ %7, %38 ], [ %37, %35 ], [ %7, %33 ], [ %7, %29 ]
  %43 = load i32, i32* %1, align 4, !tbaa !5
  %44 = add nsw i32 %43, -2
  %45 = icmp sgt i32 %41, %44
  br i1 %45, label %46, label %6, !llvm.loop !12

46:                                               ; preds = %40
  %47 = icmp eq i32 %42, 0
  br i1 %47, label %48, label %50

48:                                               ; preds = %0, %46
  %49 = call i32 (i8*, ...) @printf(i8* nonnull dereferenceable(1) getelementptr inbounds ([6 x i8], [6 x i8]* @.str.2, i64 0, i64 0))
  br label %50

50:                                               ; preds = %48, %46
  call void @llvm.lifetime.end.p0i8(i64 4, i8* nonnull %2) #4
  ret i32 0
}

; Function Attrs: argmemonly mustprogress nofree nosync nounwind willreturn
declare void @llvm.lifetime.start.p0i8(i64 immarg, i8* nocapture) #1

; Function Attrs: nofree nounwind
declare noundef i32 @__isoc99_scanf(i8* nocapture noundef readonly, ...) local_unnamed_addr #2

; Function Attrs: mustprogress nofree nounwind willreturn
declare double @sqrt(double) local_unnamed_addr #3

; Function Attrs: nofree nounwind
declare noundef i32 @printf(i8* nocapture noundef readonly, ...) local_unnamed_addr #2

; Function Attrs: argmemonly mustprogress nofree nosync nounwind willreturn
declare void @llvm.lifetime.end.p0i8(i64 immarg, i8* nocapture) #1


!llvm.module.flags = !{!0, !1, !2, !3}
!llvm.ident = !{!4}

!0 = !{i32 1, !"wchar_size", i32 4}
!1 = !{i32 7, !"PIC Level", i32 2}
!2 = !{i32 7, !"PIE Level", i32 2}
!3 = !{i32 7, !"uwtable", i32 1}
!4 = !{!"clang version 13.0.0"}
!5 = !{!6, !6, i64 0}
!6 = !{!"int", !7, i64 0}
!7 = !{!"omnipotent char", !8, i64 0}
!8 = !{!"Simple C/C++ TBAA"}
!9 = distinct !{!9, !10}
!10 = !{!"llvm.loop.mustprogress"}
!11 = distinct !{!11, !10}
!12 = distinct !{!12, !10}
